target datalayout = "e-m:e-p270:32:32-p271:32:32-p272:64:64-i64:64-i128:128-f80:128-n8:16:32:64-S128"
target triple = "x86_64-unknown-linux-gnu"

%struct.StatsSchema = type { i32, i32, ptr }
%struct.StatsSchemaList = type { ptr, ptr }

; Function Attrs: nounwind sspstrong uwtable
define dso_local void @add_stats_schema(ptr noundef %schema_results, i32 noundef %provider, i32 noundef %target, ptr noundef %stats_list) #0 {
entry:
  %schema_results.addr = alloca ptr, align 8
  %provider.addr = alloca i32, align 4
  %target.addr = alloca i32, align 4
  %stats_list.addr = alloca ptr, align 8
  %entry1 = alloca ptr, align 8
  %_tmp = alloca ptr, align 8
  store ptr %schema_results, ptr %schema_results.addr, align 8
  store i32 %provider, ptr %provider.addr, align 4
  store i32 %target, ptr %target.addr, align 4
  store ptr %stats_list, ptr %stats_list.addr, align 8
  %call = call noalias ptr @g_malloc0_n(i64 noundef 1, i64 noundef 16) #5
  store ptr %call, ptr %entry1, align 8
  %0 = load i32, ptr %provider.addr, align 4
  %1 = load ptr, ptr %entry1, align 8
  %provider2 = getelementptr inbounds %struct.StatsSchema, ptr %1, i32 0, i32 0
  store i32 %0, ptr %provider2, align 8
  %2 = load i32, ptr %target.addr, align 4
  %3 = load ptr, ptr %entry1, align 8
  %target3 = getelementptr inbounds %struct.StatsSchema, ptr %3, i32 0, i32 1
  store i32 %2, ptr %target3, align 4
  %4 = load ptr, ptr %stats_list.addr, align 8
  %5 = load ptr, ptr %entry1, align 8
  %stats = getelementptr inbounds %struct.StatsSchema, ptr %5, i32 0, i32 2
  store ptr %4, ptr %stats, align 8
  br label %do.body

do.body:                                          ; preds = %entry
  %call4 = call noalias ptr @g_malloc(i64 noundef 16) #7
  store ptr %call4, ptr %_tmp, align 8
  %6 = load ptr, ptr %entry1, align 8
  %7 = load ptr, ptr %_tmp, align 8
  %value = getelementptr inbounds %struct.StatsSchemaList, ptr %7, i32 0, i32 1
  store ptr %6, ptr %value, align 8
  %8 = load ptr, ptr %schema_results.addr, align 8
  %9 = load ptr, ptr %8, align 8
  %10 = load ptr, ptr %_tmp, align 8
  %next = getelementptr inbounds %struct.StatsSchemaList, ptr %10, i32 0, i32 0
  store ptr %9, ptr %next, align 8
  %11 = load ptr, ptr %_tmp, align 8
  %12 = load ptr, ptr %schema_results.addr, align 8
  store ptr %11, ptr %12, align 8
  br label %do.end

do.end:                                           ; preds = %do.body
  ret void
}