; Function Attrs: nounwind sspstrong uwtable
define dso_local void @add_stats_schema(ptr noundef captures(none) %schema_results, i32 noundef %provider, i32 noundef %target, ptr noundef %stats_list) local_unnamed_addr #0 {
entry:
  %call = tail call noalias dereferenceable_or_null(16) ptr @g_malloc0_n(i64 noundef 1, i64 noundef 16) #6
  store i32 %provider, ptr %call, align 8
  %target3 = getelementptr inbounds nuw i8, ptr %call, i64 4
  store i32 %target, ptr %target3, align 4
  %stats = getelementptr inbounds nuw i8, ptr %call, i64 8
  store ptr %stats_list, ptr %stats, align 8
  %call4 = tail call noalias dereferenceable_or_null(16) ptr @g_malloc(i64 noundef 16) #9
  %value = getelementptr inbounds nuw i8, ptr %call4, i64 8
  store ptr %call, ptr %value, align 8
  %0 = load ptr, ptr %schema_results, align 8
  store ptr %0, ptr %call4, align 8
  store ptr %call4, ptr %schema_results, align 8
  ret void
}